target datalayout = "e-m:e-p270:32:32-p271:32:32-p272:64:64-i64:64-i128:128-f80:128-n8:16:32:64-S128"
target triple = "x86_64-pc-linux-gnu"

%class.Node.base = type <{ ptr, ptr, ptr, i32, i32, i32, i32, i32, i32, i32 }>
%class.Node = type <{ ptr, ptr, ptr, i32, i32, i32, i32, i32, i32, i32, [4 x i8] }>
%class.BoolNode = type { %class.Node.base, %struct.BoolTest }
%struct.BoolTest = type { i32 }

; Function Attrs: mustprogress nounwind uwtable
define linkonce_odr hidden noundef ptr @_ZNK4Node7as_BoolEv(ptr noundef nonnull align 8 dereferenceable(52) %0) #1 comdat align 2 {
  %2 = alloca ptr, align 8
  store ptr %0, ptr %2, align 8
  %3 = load ptr, ptr %2, align 8
  ret ptr %3
}

; Function Attrs: mustprogress nounwind uwtable
define linkonce_odr hidden noundef zeroext i1 @_ZNK4Node15is_SubTypeCheckEv(ptr noundef nonnull align 8 dereferenceable(52) %0) #1 comdat align 2 {
  %2 = alloca ptr, align 8
  store ptr %0, ptr %2, align 8
  %3 = load ptr, ptr %2, align 8
  %4 = getelementptr inbounds %class.Node, ptr %3, i32 0, i32 8
  %5 = load i32, ptr %4, align 4
  %6 = and i32 %5, 2047
  %7 = icmp eq i32 %6, 1216
  ret i1 %7
}

; Function Attrs: mustprogress nounwind uwtable
define linkonce_odr hidden noundef zeroext i1 @_ZNK4Node7is_BoolEv(ptr noundef nonnull align 8 dereferenceable(52) %0) #1 comdat align 2 {
  %2 = alloca ptr, align 8
  store ptr %0, ptr %2, align 8
  %3 = load ptr, ptr %2, align 8
  %4 = getelementptr inbounds %class.Node, ptr %3, i32 0, i32 8
  %5 = load i32, ptr %4, align 4
  %6 = and i32 %5, 511
  %7 = icmp eq i32 %6, 256
  ret i1 %7
}

; Function Attrs: mustprogress nounwind uwtable
define linkonce_odr hidden noundef ptr @_ZNK4Node2inEj(ptr noundef nonnull align 8 dereferenceable(52) %0, i32 noundef %1) #1 comdat align 2 {
  %3 = alloca ptr, align 8
  %4 = alloca i32, align 4
  store ptr %0, ptr %3, align 8
  store i32 %1, ptr %4, align 4
  %5 = load ptr, ptr %3, align 8
  %6 = getelementptr inbounds %class.Node, ptr %5, i32 0, i32 1
  %7 = load ptr, ptr %6, align 8
  %8 = load i32, ptr %4, align 4
  %9 = zext i32 %8 to i64
  %10 = getelementptr inbounds ptr, ptr %7, i64 %9
  %11 = load ptr, ptr %10, align 8
  ret ptr %11
}

; Function Attrs: mustprogress nounwind uwtable
define hidden noundef zeroext i1 @_ZNK6IfNode14same_conditionEPK4NodeP12PhaseIterGVN(ptr noundef nonnull align 8 dereferenceable(60) %0, ptr noundef %1, ptr noundef %2) #1 align 2 {
  %4 = alloca i1, align 1
  %5 = alloca ptr, align 8
  %6 = alloca ptr, align 8
  %7 = alloca ptr, align 8
  %8 = alloca ptr, align 8
  %9 = alloca ptr, align 8
  %10 = alloca ptr, align 8
  %11 = alloca ptr, align 8
  store ptr %0, ptr %5, align 8
  store ptr %1, ptr %6, align 8
  store ptr %2, ptr %7, align 8
  %12 = load ptr, ptr %5, align 8
  %13 = load ptr, ptr %6, align 8
  %14 = call noundef ptr @_ZNK4Node2inEj(ptr noundef nonnull align 8 dereferenceable(52) %13, i32 noundef 1)
  store ptr %14, ptr %8, align 8
  %15 = call noundef ptr @_ZNK4Node2inEj(ptr noundef nonnull align 8 dereferenceable(52) %12, i32 noundef 1)
  store ptr %15, ptr %9, align 8
  %16 = load ptr, ptr %8, align 8
  %17 = load ptr, ptr %9, align 8
  %18 = icmp eq ptr %16, %17
  br i1 %18, label %19, label %20

19:                                               ; preds = %3
  store i1 true, ptr %4, align 1
  br label %76

20:                                               ; preds = %3
  %21 = load ptr, ptr %8, align 8
  %22 = icmp eq ptr %21, null
  br i1 %22, label %32, label %23

23:                                               ; preds = %20
  %24 = load ptr, ptr %8, align 8
  %25 = call noundef zeroext i1 @_ZNK4Node7is_BoolEv(ptr noundef nonnull align 8 dereferenceable(52) %24)
  br i1 %25, label %26, label %32

26:                                               ; preds = %23
  %27 = load ptr, ptr %9, align 8
  %28 = icmp eq ptr %27, null
  br i1 %28, label %32, label %29

29:                                               ; preds = %26
  %30 = load ptr, ptr %9, align 8
  %31 = call noundef zeroext i1 @_ZNK4Node7is_BoolEv(ptr noundef nonnull align 8 dereferenceable(52) %30)
  br i1 %31, label %33, label %32

32:                                               ; preds = %29, %26, %23, %20
  store i1 false, ptr %4, align 1
  br label %76

33:                                               ; preds = %29
  %34 = load ptr, ptr %8, align 8
  %35 = call noundef ptr @_ZNK4Node2inEj(ptr noundef nonnull align 8 dereferenceable(52) %34, i32 noundef 1)
  store ptr %35, ptr %10, align 8
  %36 = load ptr, ptr %9, align 8
  %37 = call noundef ptr @_ZNK4Node2inEj(ptr noundef nonnull align 8 dereferenceable(52) %36, i32 noundef 1)
  store ptr %37, ptr %11, align 8
  %38 = load ptr, ptr %10, align 8
  %39 = icmp eq ptr %38, null
  br i1 %39, label %49, label %40

40:                                               ; preds = %33
  %41 = load ptr, ptr %10, align 8
  %42 = call noundef zeroext i1 @_ZNK4Node15is_SubTypeCheckEv(ptr noundef nonnull align 8 dereferenceable(52) %41)
  br i1 %42, label %43, label %49

43:                                               ; preds = %40
  %44 = load ptr, ptr %11, align 8
  %45 = icmp eq ptr %44, null
  br i1 %45, label %49, label %46

46:                                               ; preds = %43
  %47 = load ptr, ptr %11, align 8
  %48 = call noundef zeroext i1 @_ZNK4Node15is_SubTypeCheckEv(ptr noundef nonnull align 8 dereferenceable(52) %47)
  br i1 %48, label %50, label %49

49:                                               ; preds = %46, %43, %40, %33
  store i1 false, ptr %4, align 1
  br label %76

50:                                               ; preds = %46
  %51 = load ptr, ptr %10, align 8
  %52 = call noundef ptr @_ZNK4Node2inEj(ptr noundef nonnull align 8 dereferenceable(52) %51, i32 noundef 1)
  %53 = load ptr, ptr %11, align 8
  %54 = call noundef ptr @_ZNK4Node2inEj(ptr noundef nonnull align 8 dereferenceable(52) %53, i32 noundef 1)
  %55 = icmp ne ptr %52, %54
  br i1 %55, label %74, label %56

56:                                               ; preds = %50
  %57 = load ptr, ptr %10, align 8
  %58 = call noundef ptr @_ZNK4Node2inEj(ptr noundef nonnull align 8 dereferenceable(52) %57, i32 noundef 2)
  %59 = load ptr, ptr %11, align 8
  %60 = call noundef ptr @_ZNK4Node2inEj(ptr noundef nonnull align 8 dereferenceable(52) %59, i32 noundef 2)
  %61 = icmp ne ptr %58, %60
  br i1 %61, label %74, label %62

62:                                               ; preds = %56
  %63 = load ptr, ptr %8, align 8
  %64 = call noundef ptr @_ZNK4Node7as_BoolEv(ptr noundef nonnull align 8 dereferenceable(52) %63)
  %65 = getelementptr inbounds %class.BoolNode, ptr %64, i32 0, i32 1
  %66 = getelementptr inbounds %struct.BoolTest, ptr %65, i32 0, i32 0
  %67 = load i32, ptr %66, align 4
  %68 = load ptr, ptr %9, align 8
  %69 = call noundef ptr @_ZNK4Node7as_BoolEv(ptr noundef nonnull align 8 dereferenceable(52) %68)
  %70 = getelementptr inbounds %class.BoolNode, ptr %69, i32 0, i32 1
  %71 = getelementptr inbounds %struct.BoolTest, ptr %70, i32 0, i32 0
  %72 = load i32, ptr %71, align 4
  %73 = icmp ne i32 %67, %72
  br i1 %73, label %74, label %75

74:                                               ; preds = %62, %56, %50
  store i1 false, ptr %4, align 1
  br label %76

75:                                               ; preds = %62
  store i1 true, ptr %4, align 1
  br label %76

76:                                               ; preds = %75, %74, %49, %32, %19
  %77 = load i1, ptr %4, align 1
  ret i1 %77
}