; Function Attrs: mustprogress nofree norecurse nosync nounwind willreturn memory(read, inaccessiblemem: none) uwtable
define hidden noundef zeroext i1 @_ZNK6IfNode14same_conditionEPK4NodeP12PhaseIterGVN(ptr nocapture noundef nonnull readonly align 8 dereferenceable(60) %0, ptr nocapture noundef readonly %1, ptr nocapture noundef readnone %2) local_unnamed_addr #1 align 2 {
  %4 = getelementptr inbounds i8, ptr %1, i64 8
  %5 = load ptr, ptr %4, align 8
  %6 = getelementptr inbounds i8, ptr %5, i64 8
  %7 = load ptr, ptr %6, align 8
  %8 = getelementptr inbounds i8, ptr %0, i64 8
  %9 = load ptr, ptr %8, align 8
  %10 = getelementptr inbounds i8, ptr %9, i64 8
  %11 = load ptr, ptr %10, align 8
  %12 = icmp eq ptr %7, %11
  br i1 %12, label %66, label %13

13:                                               ; preds = %3
  %14 = icmp eq ptr %7, null
  br i1 %14, label %66, label %15

15:                                               ; preds = %13
  %16 = getelementptr inbounds i8, ptr %7, i64 44
  %17 = load i32, ptr %16, align 4
  %18 = and i32 %17, 511
  %19 = icmp eq i32 %18, 256
  %20 = icmp ne ptr %11, null
  %or.cond.not = and i1 %20, %19
  br i1 %or.cond.not, label %21, label %66

21:                                               ; preds = %15
  %22 = getelementptr inbounds i8, ptr %11, i64 44
  %23 = load i32, ptr %22, align 4
  %24 = and i32 %23, 511
  %25 = icmp eq i32 %24, 256
  br i1 %25, label %26, label %66

26:                                               ; preds = %21
  %27 = getelementptr inbounds i8, ptr %7, i64 8
  %28 = load ptr, ptr %27, align 8
  %29 = getelementptr inbounds i8, ptr %28, i64 8
  %30 = load ptr, ptr %29, align 8
  %31 = getelementptr inbounds i8, ptr %11, i64 8
  %32 = load ptr, ptr %31, align 8
  %33 = getelementptr inbounds i8, ptr %32, i64 8
  %34 = load ptr, ptr %33, align 8
  %35 = icmp eq ptr %30, null
  br i1 %35, label %66, label %36

36:                                               ; preds = %26
  %37 = getelementptr inbounds i8, ptr %30, i64 44
  %38 = load i32, ptr %37, align 4
  %39 = and i32 %38, 2047
  %40 = icmp eq i32 %39, 1216
  %41 = icmp ne ptr %34, null
  %or.cond4.not = and i1 %41, %40
  br i1 %or.cond4.not, label %42, label %66

42:                                               ; preds = %36
  %43 = getelementptr inbounds i8, ptr %34, i64 44
  %44 = load i32, ptr %43, align 4
  %45 = and i32 %44, 2047
  %46 = icmp eq i32 %45, 1216
  br i1 %46, label %47, label %66

47:                                               ; preds = %42
  %48 = getelementptr inbounds i8, ptr %30, i64 8
  %49 = load ptr, ptr %48, align 8
  %50 = getelementptr inbounds i8, ptr %49, i64 8
  %51 = load ptr, ptr %50, align 8
  %52 = getelementptr inbounds i8, ptr %34, i64 8
  %53 = load ptr, ptr %52, align 8
  %54 = getelementptr inbounds i8, ptr %53, i64 8
  %55 = load ptr, ptr %54, align 8
  %.not = icmp eq ptr %51, %55
  br i1 %.not, label %56, label %66

56:                                               ; preds = %47
  %57 = getelementptr inbounds i8, ptr %49, i64 16
  %58 = load ptr, ptr %57, align 8
  %59 = getelementptr inbounds i8, ptr %53, i64 16
  %60 = load ptr, ptr %59, align 8
  %.not30 = icmp eq ptr %58, %60
  br i1 %.not30, label %61, label %66

61:                                               ; preds = %56
  %62 = getelementptr inbounds i8, ptr %7, i64 52
  %63 = load i32, ptr %62, align 4
  %64 = getelementptr inbounds i8, ptr %11, i64 52
  %65 = load i32, ptr %64, align 4
  %.not31 = icmp eq i32 %63, %65
  br label %66

66:                                               ; preds = %61, %47, %56, %26, %36, %42, %13, %15, %21, %3
  %.0 = phi i1 [ true, %3 ], [ false, %21 ], [ false, %15 ], [ false, %13 ], [ false, %42 ], [ false, %36 ], [ false, %26 ], [ false, %56 ], [ false, %47 ], [ %.not31, %61 ]
  ret i1 %.0
}